
teclado4x4.elf:     file format elf32-avr

Sections:
Idx Name          Size      VMA       LMA       File off  Algn
  0 .data         0000002c  00800100  00000618  000006ac  2**0
                  CONTENTS, ALLOC, LOAD, DATA
  1 .text         00000618  00000000  00000000  00000094  2**1
                  CONTENTS, ALLOC, LOAD, READONLY, CODE
  2 .bss          00000001  0080012c  0080012c  000006d8  2**0
                  ALLOC
  3 .comment      00000030  00000000  00000000  000006d8  2**0
                  CONTENTS, READONLY
  4 .note.gnu.avr.deviceinfo 00000040  00000000  00000000  00000708  2**2
                  CONTENTS, READONLY
  5 .debug_aranges 000000f0  00000000  00000000  00000748  2**0
                  CONTENTS, READONLY, DEBUGGING
  6 .debug_info   0000145e  00000000  00000000  00000838  2**0
                  CONTENTS, READONLY, DEBUGGING
  7 .debug_abbrev 000009b1  00000000  00000000  00001c96  2**0
                  CONTENTS, READONLY, DEBUGGING
  8 .debug_line   000009d1  00000000  00000000  00002647  2**0
                  CONTENTS, READONLY, DEBUGGING
  9 .debug_frame  0000028c  00000000  00000000  00003018  2**2
                  CONTENTS, READONLY, DEBUGGING
 10 .debug_str    000005c6  00000000  00000000  000032a4  2**0
                  CONTENTS, READONLY, DEBUGGING
 11 .debug_loc    00000f00  00000000  00000000  0000386a  2**0
                  CONTENTS, READONLY, DEBUGGING
 12 .debug_ranges 000000d0  00000000  00000000  0000476a  2**0
                  CONTENTS, READONLY, DEBUGGING

Disassembly of section .text:

00000000 <__vectors>:
   0:	0c 94 54 00 	jmp	0xa8	; 0xa8 <__ctors_end>
   4:	0c 94 71 00 	jmp	0xe2	; 0xe2 <__bad_interrupt>
   8:	0c 94 71 00 	jmp	0xe2	; 0xe2 <__bad_interrupt>
   c:	0c 94 71 00 	jmp	0xe2	; 0xe2 <__bad_interrupt>
  10:	0c 94 71 00 	jmp	0xe2	; 0xe2 <__bad_interrupt>
  14:	0c 94 71 00 	jmp	0xe2	; 0xe2 <__bad_interrupt>
  18:	0c 94 71 00 	jmp	0xe2	; 0xe2 <__bad_interrupt>
  1c:	0c 94 71 00 	jmp	0xe2	; 0xe2 <__bad_interrupt>
  20:	0c 94 71 00 	jmp	0xe2	; 0xe2 <__bad_interrupt>
  24:	0c 94 71 00 	jmp	0xe2	; 0xe2 <__bad_interrupt>
  28:	0c 94 71 00 	jmp	0xe2	; 0xe2 <__bad_interrupt>
  2c:	0c 94 71 00 	jmp	0xe2	; 0xe2 <__bad_interrupt>
  30:	0c 94 71 00 	jmp	0xe2	; 0xe2 <__bad_interrupt>
  34:	0c 94 71 00 	jmp	0xe2	; 0xe2 <__bad_interrupt>
  38:	0c 94 71 00 	jmp	0xe2	; 0xe2 <__bad_interrupt>
  3c:	0c 94 71 00 	jmp	0xe2	; 0xe2 <__bad_interrupt>
  40:	0c 94 71 00 	jmp	0xe2	; 0xe2 <__bad_interrupt>
  44:	0c 94 71 00 	jmp	0xe2	; 0xe2 <__bad_interrupt>
  48:	0c 94 71 00 	jmp	0xe2	; 0xe2 <__bad_interrupt>
  4c:	0c 94 71 00 	jmp	0xe2	; 0xe2 <__bad_interrupt>
  50:	0c 94 71 00 	jmp	0xe2	; 0xe2 <__bad_interrupt>
  54:	0c 94 71 00 	jmp	0xe2	; 0xe2 <__bad_interrupt>
  58:	0c 94 71 00 	jmp	0xe2	; 0xe2 <__bad_interrupt>
  5c:	0c 94 71 00 	jmp	0xe2	; 0xe2 <__bad_interrupt>
  60:	0c 94 71 00 	jmp	0xe2	; 0xe2 <__bad_interrupt>
  64:	0c 94 71 00 	jmp	0xe2	; 0xe2 <__bad_interrupt>

00000068 <LcdCustomChar>:
  68:	00 1f 00 00 00 00 1f 00 00 1f 10 10 10 10 1f 00     ................
  78:	00 1f 18 18 18 18 1f 00 00 1f 1c 1c 1c 1c 1f 00     ................
  88:	00 1f 1e 1e 1e 1e 1f 00 00 1f 1f 1f 1f 1f 1f 00     ................
  98:	03 07 0f 1f 0f 07 03 00 18 1c 1e 1f 1e 1c 18 00     ................

000000a8 <__ctors_end>:
  a8:	11 24       	eor	r1, r1
  aa:	1f be       	out	0x3f, r1	; 63
  ac:	cf ef       	ldi	r28, 0xFF	; 255
  ae:	d8 e0       	ldi	r29, 0x08	; 8
  b0:	de bf       	out	0x3e, r29	; 62
  b2:	cd bf       	out	0x3d, r28	; 61

000000b4 <__do_copy_data>:
  b4:	11 e0       	ldi	r17, 0x01	; 1
  b6:	a0 e0       	ldi	r26, 0x00	; 0
  b8:	b1 e0       	ldi	r27, 0x01	; 1
  ba:	e8 e1       	ldi	r30, 0x18	; 24
  bc:	f6 e0       	ldi	r31, 0x06	; 6
  be:	02 c0       	rjmp	.+4      	; 0xc4 <__do_copy_data+0x10>
  c0:	05 90       	lpm	r0, Z+
  c2:	0d 92       	st	X+, r0
  c4:	ac 32       	cpi	r26, 0x2C	; 44
  c6:	b1 07       	cpc	r27, r17
  c8:	d9 f7       	brne	.-10     	; 0xc0 <__do_copy_data+0xc>

000000ca <__do_clear_bss>:
  ca:	21 e0       	ldi	r18, 0x01	; 1
  cc:	ac e2       	ldi	r26, 0x2C	; 44
  ce:	b1 e0       	ldi	r27, 0x01	; 1
  d0:	01 c0       	rjmp	.+2      	; 0xd4 <.do_clear_bss_start>

000000d2 <.do_clear_bss_loop>:
  d2:	1d 92       	st	X+, r1

000000d4 <.do_clear_bss_start>:
  d4:	ad 32       	cpi	r26, 0x2D	; 45
  d6:	b2 07       	cpc	r27, r18
  d8:	e1 f7       	brne	.-8      	; 0xd2 <.do_clear_bss_loop>
  da:	0e 94 f4 02 	call	0x5e8	; 0x5e8 <main>
  de:	0c 94 0a 03 	jmp	0x614	; 0x614 <_exit>

000000e2 <__bad_interrupt>:
  e2:	0c 94 00 00 	jmp	0	; 0x0 <__vectors>

000000e6 <LCDsendChar>:
	LCDGotoXY(x,y);
	for(i=0;(uint8_t)pgm_read_byte(&FlashLoc[i]);i++)
	{
		LCDsendChar((uint8_t)pgm_read_byte(&FlashLoc[i]));
	}
}
  e6:	65 b1       	in	r22, 0x05	; 5
  e8:	98 2f       	mov	r25, r24
  ea:	90 74       	andi	r25, 0x40	; 64
  ec:	49 2f       	mov	r20, r25
  ee:	50 e0       	ldi	r21, 0x00	; 0
  f0:	55 95       	asr	r21
  f2:	47 95       	ror	r20
  f4:	55 95       	asr	r21
  f6:	47 95       	ror	r20
  f8:	55 95       	asr	r21
  fa:	47 95       	ror	r20
  fc:	55 95       	asr	r21
  fe:	47 95       	ror	r20
 100:	98 2f       	mov	r25, r24
 102:	90 78       	andi	r25, 0x80	; 128
 104:	29 2f       	mov	r18, r25
 106:	30 e0       	ldi	r19, 0x00	; 0
 108:	02 2e       	mov	r0, r18
 10a:	23 2f       	mov	r18, r19
 10c:	00 0c       	add	r0, r0
 10e:	22 1f       	adc	r18, r18
 110:	33 0b       	sbc	r19, r19
 112:	00 0c       	add	r0, r0
 114:	22 1f       	adc	r18, r18
 116:	33 1f       	adc	r19, r19
 118:	96 2f       	mov	r25, r22
 11a:	99 7f       	andi	r25, 0xF9	; 249
 11c:	49 2b       	or	r20, r25
 11e:	24 2b       	or	r18, r20
 120:	25 b9       	out	0x05, r18	; 5
 122:	68 b1       	in	r22, 0x08	; 8
 124:	98 2f       	mov	r25, r24
 126:	90 71       	andi	r25, 0x10	; 16
 128:	49 2f       	mov	r20, r25
 12a:	50 e0       	ldi	r21, 0x00	; 0
 12c:	55 95       	asr	r21
 12e:	47 95       	ror	r20
 130:	55 95       	asr	r21
 132:	47 95       	ror	r20
 134:	55 95       	asr	r21
 136:	47 95       	ror	r20
 138:	98 2f       	mov	r25, r24
 13a:	90 72       	andi	r25, 0x20	; 32
 13c:	29 2f       	mov	r18, r25
 13e:	30 e0       	ldi	r19, 0x00	; 0
 140:	35 95       	asr	r19
 142:	27 95       	ror	r18
 144:	35 95       	asr	r19
 146:	27 95       	ror	r18
 148:	35 95       	asr	r19
 14a:	27 95       	ror	r18
 14c:	96 2f       	mov	r25, r22
 14e:	99 7f       	andi	r25, 0xF9	; 249
 150:	49 2b       	or	r20, r25
 152:	24 2b       	or	r18, r20
 154:	28 b9       	out	0x08, r18	; 8
 156:	9b b1       	in	r25, 0x0b	; 11
 158:	92 60       	ori	r25, 0x02	; 2
 15a:	9b b9       	out	0x0b, r25	; 11
 15c:	9b b1       	in	r25, 0x0b	; 11
 15e:	91 60       	ori	r25, 0x01	; 1
 160:	9b b9       	out	0x0b, r25	; 11
 162:	2d e0       	ldi	r18, 0x0D	; 13
 164:	2a 95       	dec	r18
 166:	f1 f7       	brne	.-4      	; 0x164 <LCDsendChar+0x7e>
 168:	00 00       	nop
 16a:	9b b1       	in	r25, 0x0b	; 11
 16c:	9e 7f       	andi	r25, 0xFE	; 254
 16e:	9b b9       	out	0x0b, r25	; 11
 170:	9b b1       	in	r25, 0x0b	; 11
 172:	9d 7f       	andi	r25, 0xFD	; 253
 174:	9b b9       	out	0x0b, r25	; 11
 176:	9d e0       	ldi	r25, 0x0D	; 13
 178:	9a 95       	dec	r25
 17a:	f1 f7       	brne	.-4      	; 0x178 <LCDsendChar+0x92>
 17c:	00 00       	nop
 17e:	65 b1       	in	r22, 0x05	; 5
 180:	20 e1       	ldi	r18, 0x10	; 16
 182:	82 9f       	mul	r24, r18
 184:	c0 01       	movw	r24, r0
 186:	11 24       	eor	r1, r1
 188:	ac 01       	movw	r20, r24
 18a:	40 74       	andi	r20, 0x40	; 64
 18c:	55 27       	eor	r21, r21
 18e:	55 95       	asr	r21
 190:	47 95       	ror	r20
 192:	55 95       	asr	r21
 194:	47 95       	ror	r20
 196:	55 95       	asr	r21
 198:	47 95       	ror	r20
 19a:	55 95       	asr	r21
 19c:	47 95       	ror	r20
 19e:	9c 01       	movw	r18, r24
 1a0:	20 78       	andi	r18, 0x80	; 128
 1a2:	33 27       	eor	r19, r19
 1a4:	02 2e       	mov	r0, r18
 1a6:	23 2f       	mov	r18, r19
 1a8:	00 0c       	add	r0, r0
 1aa:	22 1f       	adc	r18, r18
 1ac:	33 0b       	sbc	r19, r19
 1ae:	00 0c       	add	r0, r0
 1b0:	22 1f       	adc	r18, r18
 1b2:	33 1f       	adc	r19, r19
 1b4:	36 2f       	mov	r19, r22
 1b6:	39 7f       	andi	r19, 0xF9	; 249
 1b8:	43 2b       	or	r20, r19
 1ba:	24 2b       	or	r18, r20
 1bc:	25 b9       	out	0x05, r18	; 5
 1be:	48 b1       	in	r20, 0x08	; 8
 1c0:	9c 01       	movw	r18, r24
 1c2:	20 71       	andi	r18, 0x10	; 16
 1c4:	33 27       	eor	r19, r19
 1c6:	35 95       	asr	r19
 1c8:	27 95       	ror	r18
 1ca:	35 95       	asr	r19
 1cc:	27 95       	ror	r18
 1ce:	35 95       	asr	r19
 1d0:	27 95       	ror	r18
 1d2:	80 72       	andi	r24, 0x20	; 32
 1d4:	99 27       	eor	r25, r25
 1d6:	95 95       	asr	r25
 1d8:	87 95       	ror	r24
 1da:	95 95       	asr	r25
 1dc:	87 95       	ror	r24
 1de:	95 95       	asr	r25
 1e0:	87 95       	ror	r24
 1e2:	94 2f       	mov	r25, r20
 1e4:	99 7f       	andi	r25, 0xF9	; 249
 1e6:	29 2b       	or	r18, r25
 1e8:	82 2b       	or	r24, r18
 1ea:	88 b9       	out	0x08, r24	; 8
 1ec:	8b b1       	in	r24, 0x0b	; 11
 1ee:	82 60       	ori	r24, 0x02	; 2
 1f0:	8b b9       	out	0x0b, r24	; 11
 1f2:	8b b1       	in	r24, 0x0b	; 11
 1f4:	81 60       	ori	r24, 0x01	; 1
 1f6:	8b b9       	out	0x0b, r24	; 11
 1f8:	8d e0       	ldi	r24, 0x0D	; 13
 1fa:	8a 95       	dec	r24
 1fc:	f1 f7       	brne	.-4      	; 0x1fa <LCDsendChar+0x114>
 1fe:	00 00       	nop
 200:	8b b1       	in	r24, 0x0b	; 11
 202:	8e 7f       	andi	r24, 0xFE	; 254
 204:	8b b9       	out	0x0b, r24	; 11
 206:	8b b1       	in	r24, 0x0b	; 11
 208:	8d 7f       	andi	r24, 0xFD	; 253
 20a:	8b b9       	out	0x0b, r24	; 11
 20c:	9d e0       	ldi	r25, 0x0D	; 13
 20e:	9a 95       	dec	r25
 210:	f1 f7       	brne	.-4      	; 0x20e <LCDsendChar+0x128>
 212:	00 00       	nop
 214:	08 95       	ret

00000216 <LCDsendCommand>:
 216:	65 b1       	in	r22, 0x05	; 5
 218:	98 2f       	mov	r25, r24
 21a:	90 74       	andi	r25, 0x40	; 64
 21c:	49 2f       	mov	r20, r25
 21e:	50 e0       	ldi	r21, 0x00	; 0
 220:	55 95       	asr	r21
 222:	47 95       	ror	r20
 224:	55 95       	asr	r21
 226:	47 95       	ror	r20
 228:	55 95       	asr	r21
 22a:	47 95       	ror	r20
 22c:	55 95       	asr	r21
 22e:	47 95       	ror	r20
 230:	98 2f       	mov	r25, r24
 232:	90 78       	andi	r25, 0x80	; 128
 234:	29 2f       	mov	r18, r25
 236:	30 e0       	ldi	r19, 0x00	; 0
 238:	02 2e       	mov	r0, r18
 23a:	23 2f       	mov	r18, r19
 23c:	00 0c       	add	r0, r0
 23e:	22 1f       	adc	r18, r18
 240:	33 0b       	sbc	r19, r19
 242:	00 0c       	add	r0, r0
 244:	22 1f       	adc	r18, r18
 246:	33 1f       	adc	r19, r19
 248:	96 2f       	mov	r25, r22
 24a:	99 7f       	andi	r25, 0xF9	; 249
 24c:	49 2b       	or	r20, r25
 24e:	24 2b       	or	r18, r20
 250:	25 b9       	out	0x05, r18	; 5
 252:	68 b1       	in	r22, 0x08	; 8
 254:	98 2f       	mov	r25, r24
 256:	90 71       	andi	r25, 0x10	; 16
 258:	49 2f       	mov	r20, r25
 25a:	50 e0       	ldi	r21, 0x00	; 0
 25c:	55 95       	asr	r21
 25e:	47 95       	ror	r20
 260:	55 95       	asr	r21
 262:	47 95       	ror	r20
 264:	55 95       	asr	r21
 266:	47 95       	ror	r20
 268:	98 2f       	mov	r25, r24
 26a:	90 72       	andi	r25, 0x20	; 32
 26c:	29 2f       	mov	r18, r25
 26e:	30 e0       	ldi	r19, 0x00	; 0
 270:	35 95       	asr	r19
 272:	27 95       	ror	r18
 274:	35 95       	asr	r19
 276:	27 95       	ror	r18
 278:	35 95       	asr	r19
 27a:	27 95       	ror	r18
 27c:	96 2f       	mov	r25, r22
 27e:	99 7f       	andi	r25, 0xF9	; 249
 280:	49 2b       	or	r20, r25
 282:	24 2b       	or	r18, r20
 284:	28 b9       	out	0x08, r18	; 8
 286:	9b b1       	in	r25, 0x0b	; 11
 288:	91 60       	ori	r25, 0x01	; 1
 28a:	9b b9       	out	0x0b, r25	; 11
 28c:	e9 ef       	ldi	r30, 0xF9	; 249
 28e:	f0 e0       	ldi	r31, 0x00	; 0
 290:	31 97       	sbiw	r30, 0x01	; 1
 292:	f1 f7       	brne	.-4      	; 0x290 <LCDsendCommand+0x7a>
 294:	00 c0       	rjmp	.+0      	; 0x296 <LCDsendCommand+0x80>
 296:	00 00       	nop
 298:	9b b1       	in	r25, 0x0b	; 11
 29a:	9e 7f       	andi	r25, 0xFE	; 254
 29c:	9b b9       	out	0x0b, r25	; 11
 29e:	e9 ef       	ldi	r30, 0xF9	; 249
 2a0:	f0 e0       	ldi	r31, 0x00	; 0
 2a2:	31 97       	sbiw	r30, 0x01	; 1
 2a4:	f1 f7       	brne	.-4      	; 0x2a2 <LCDsendCommand+0x8c>
 2a6:	00 c0       	rjmp	.+0      	; 0x2a8 <LCDsendCommand+0x92>
 2a8:	00 00       	nop
 2aa:	65 b1       	in	r22, 0x05	; 5
 2ac:	f0 e1       	ldi	r31, 0x10	; 16
 2ae:	8f 9f       	mul	r24, r31
 2b0:	c0 01       	movw	r24, r0
 2b2:	11 24       	eor	r1, r1
 2b4:	ac 01       	movw	r20, r24
 2b6:	40 74       	andi	r20, 0x40	; 64
 2b8:	55 27       	eor	r21, r21
 2ba:	55 95       	asr	r21
 2bc:	47 95       	ror	r20
 2be:	55 95       	asr	r21
 2c0:	47 95       	ror	r20
 2c2:	55 95       	asr	r21
 2c4:	47 95       	ror	r20
 2c6:	55 95       	asr	r21
 2c8:	47 95       	ror	r20
 2ca:	9c 01       	movw	r18, r24
 2cc:	20 78       	andi	r18, 0x80	; 128
 2ce:	33 27       	eor	r19, r19
 2d0:	02 2e       	mov	r0, r18
 2d2:	23 2f       	mov	r18, r19
 2d4:	00 0c       	add	r0, r0
 2d6:	22 1f       	adc	r18, r18
 2d8:	33 0b       	sbc	r19, r19
 2da:	00 0c       	add	r0, r0
 2dc:	22 1f       	adc	r18, r18
 2de:	33 1f       	adc	r19, r19
 2e0:	36 2f       	mov	r19, r22
 2e2:	39 7f       	andi	r19, 0xF9	; 249
 2e4:	43 2b       	or	r20, r19
 2e6:	24 2b       	or	r18, r20
 2e8:	25 b9       	out	0x05, r18	; 5
 2ea:	48 b1       	in	r20, 0x08	; 8
 2ec:	9c 01       	movw	r18, r24
 2ee:	20 71       	andi	r18, 0x10	; 16
 2f0:	33 27       	eor	r19, r19
 2f2:	35 95       	asr	r19
 2f4:	27 95       	ror	r18
 2f6:	35 95       	asr	r19
 2f8:	27 95       	ror	r18
 2fa:	35 95       	asr	r19
 2fc:	27 95       	ror	r18
 2fe:	80 72       	andi	r24, 0x20	; 32
 300:	99 27       	eor	r25, r25
 302:	95 95       	asr	r25
 304:	87 95       	ror	r24
 306:	95 95       	asr	r25
 308:	87 95       	ror	r24
 30a:	95 95       	asr	r25
 30c:	87 95       	ror	r24
 30e:	94 2f       	mov	r25, r20
 310:	99 7f       	andi	r25, 0xF9	; 249
 312:	29 2b       	or	r18, r25
 314:	82 2b       	or	r24, r18
 316:	88 b9       	out	0x08, r24	; 8
 318:	8b b1       	in	r24, 0x0b	; 11
 31a:	81 60       	ori	r24, 0x01	; 1
 31c:	8b b9       	out	0x0b, r24	; 11
 31e:	89 ef       	ldi	r24, 0xF9	; 249
 320:	90 e0       	ldi	r25, 0x00	; 0
 322:	01 97       	sbiw	r24, 0x01	; 1
 324:	f1 f7       	brne	.-4      	; 0x322 <LCDsendCommand+0x10c>
 326:	00 c0       	rjmp	.+0      	; 0x328 <LCDsendCommand+0x112>
 328:	00 00       	nop
 32a:	8b b1       	in	r24, 0x0b	; 11
 32c:	8e 7f       	andi	r24, 0xFE	; 254
 32e:	8b b9       	out	0x0b, r24	; 11
 330:	e9 ef       	ldi	r30, 0xF9	; 249
 332:	f0 e0       	ldi	r31, 0x00	; 0
 334:	31 97       	sbiw	r30, 0x01	; 1
 336:	f1 f7       	brne	.-4      	; 0x334 <LCDsendCommand+0x11e>
 338:	00 c0       	rjmp	.+0      	; 0x33a <LCDsendCommand+0x124>
 33a:	00 00       	nop
 33c:	08 95       	ret

0000033e <LCDclr>:
 33e:	81 e0       	ldi	r24, 0x01	; 1
 340:	0e 94 0b 01 	call	0x216	; 0x216 <LCDsendCommand>
 344:	08 95       	ret

00000346 <LCDstring>:
 346:	0f 93       	push	r16
 348:	1f 93       	push	r17
 34a:	cf 93       	push	r28
 34c:	df 93       	push	r29
 34e:	00 97       	sbiw	r24, 0x00	; 0
 350:	69 f0       	breq	.+26     	; 0x36c <LCDstring+0x26>
 352:	d6 2f       	mov	r29, r22
 354:	8c 01       	movw	r16, r24
 356:	c0 e0       	ldi	r28, 0x00	; 0
 358:	07 c0       	rjmp	.+14     	; 0x368 <LCDstring+0x22>
 35a:	f8 01       	movw	r30, r16
 35c:	ec 0f       	add	r30, r28
 35e:	f1 1d       	adc	r31, r1
 360:	80 81       	ld	r24, Z
 362:	0e 94 73 00 	call	0xe6	; 0xe6 <LCDsendChar>
 366:	cf 5f       	subi	r28, 0xFF	; 255
 368:	cd 17       	cp	r28, r29
 36a:	b8 f3       	brcs	.-18     	; 0x35a <LCDstring+0x14>
 36c:	df 91       	pop	r29
 36e:	cf 91       	pop	r28
 370:	1f 91       	pop	r17
 372:	0f 91       	pop	r16
 374:	08 95       	ret

00000376 <LCDGotoXY>:
 376:	62 30       	cpi	r22, 0x02	; 2
 378:	31 f0       	breq	.+12     	; 0x386 <LCDGotoXY+0x10>
 37a:	63 30       	cpi	r22, 0x03	; 3
 37c:	31 f0       	breq	.+12     	; 0x38a <LCDGotoXY+0x14>
 37e:	61 30       	cpi	r22, 0x01	; 1
 380:	29 f4       	brne	.+10     	; 0x38c <LCDGotoXY+0x16>
 382:	80 5c       	subi	r24, 0xC0	; 192
 384:	03 c0       	rjmp	.+6      	; 0x38c <LCDGotoXY+0x16>
 386:	8c 5e       	subi	r24, 0xEC	; 236
 388:	01 c0       	rjmp	.+2      	; 0x38c <LCDGotoXY+0x16>
 38a:	8c 5a       	subi	r24, 0xAC	; 172
 38c:	80 68       	ori	r24, 0x80	; 128
 38e:	0e 94 0b 01 	call	0x216	; 0x216 <LCDsendCommand>
 392:	08 95       	ret

00000394 <LCDdefinechar>:
0b00000000,
0b00000000
};
LCDdefinechar(backslash,0);
*/
void LCDdefinechar(const uint8_t *pc,uint8_t char_code){
 394:	ef 92       	push	r14
 396:	ff 92       	push	r15
 398:	0f 93       	push	r16
 39a:	1f 93       	push	r17
 39c:	cf 93       	push	r28
 39e:	df 93       	push	r29
 3a0:	7c 01       	movw	r14, r24
	uint8_t a, pcc;
	uint16_t i;
	a=(char_code<<3)|0x40;
 3a2:	86 2f       	mov	r24, r22
 3a4:	90 e0       	ldi	r25, 0x00	; 0
 3a6:	88 0f       	add	r24, r24
 3a8:	99 1f       	adc	r25, r25
 3aa:	88 0f       	add	r24, r24
 3ac:	99 1f       	adc	r25, r25
 3ae:	88 0f       	add	r24, r24
 3b0:	99 1f       	adc	r25, r25
 3b2:	80 64       	ori	r24, 0x40	; 64
	for (i=0; i<8; i++){
 3b4:	c0 e0       	ldi	r28, 0x00	; 0
 3b6:	d0 e0       	ldi	r29, 0x00	; 0
 3b8:	0d c0       	rjmp	.+26     	; 0x3d4 <LCDdefinechar+0x40>
		pcc=pgm_read_byte(&pc[i]);
 3ba:	f7 01       	movw	r30, r14
 3bc:	ec 0f       	add	r30, r28
 3be:	fd 1f       	adc	r31, r29
 3c0:	14 91       	lpm	r17, Z
		LCDsendCommand(a++);
 3c2:	01 e0       	ldi	r16, 0x01	; 1
 3c4:	08 0f       	add	r16, r24
 3c6:	0e 94 0b 01 	call	0x216	; 0x216 <LCDsendCommand>
		LCDsendChar(pcc);
 3ca:	81 2f       	mov	r24, r17
 3cc:	0e 94 73 00 	call	0xe6	; 0xe6 <LCDsendChar>
*/
void LCDdefinechar(const uint8_t *pc,uint8_t char_code){
	uint8_t a, pcc;
	uint16_t i;
	a=(char_code<<3)|0x40;
	for (i=0; i<8; i++){
 3d0:	21 96       	adiw	r28, 0x01	; 1
		pcc=pgm_read_byte(&pc[i]);
		LCDsendCommand(a++);
 3d2:	80 2f       	mov	r24, r16
*/
void LCDdefinechar(const uint8_t *pc,uint8_t char_code){
	uint8_t a, pcc;
	uint16_t i;
	a=(char_code<<3)|0x40;
	for (i=0; i<8; i++){
 3d4:	c8 30       	cpi	r28, 0x08	; 8
 3d6:	d1 05       	cpc	r29, r1
 3d8:	80 f3       	brcs	.-32     	; 0x3ba <LCDdefinechar+0x26>
		pcc=pgm_read_byte(&pc[i]);
		LCDsendCommand(a++);
		LCDsendChar(pcc);
		}
}
 3da:	df 91       	pop	r29
 3dc:	cf 91       	pop	r28
 3de:	1f 91       	pop	r17
 3e0:	0f 91       	pop	r16
 3e2:	ff 90       	pop	r15
 3e4:	ef 90       	pop	r14
 3e6:	08 95       	ret

000003e8 <LCDinit>:
	LCP&=~(1<<LCD_E);
	_delay_ms(1);	
#endif
}
void LCDinit(void)//Initializes LCD
{
 3e8:	cf 93       	push	r28
 3ea:	df 93       	push	r29
	#else
		//round up by default
		__ticks_dc = (uint32_t)(ceil(fabs(__tmp)));
	#endif

	__builtin_avr_delay_cycles(__ticks_dc);
 3ec:	85 ea       	ldi	r24, 0xA5	; 165
 3ee:	9e e0       	ldi	r25, 0x0E	; 14
 3f0:	01 97       	sbiw	r24, 0x01	; 1
 3f2:	f1 f7       	brne	.-4      	; 0x3f0 <LCDinit+0x8>
 3f4:	00 c0       	rjmp	.+0      	; 0x3f6 <LCDinit+0xe>
 3f6:	00 00       	nop
#ifdef LCD_4bit	
	//4 bit part
	_delay_ms(15);
	//LDP=0x00;
	LCD_DATAWR(0x00);	
 3f8:	85 b1       	in	r24, 0x05	; 5
 3fa:	89 7f       	andi	r24, 0xF9	; 249
 3fc:	85 b9       	out	0x05, r24	; 5
 3fe:	88 b1       	in	r24, 0x08	; 8
 400:	89 7f       	andi	r24, 0xF9	; 249
 402:	88 b9       	out	0x08, r24	; 8
	LCP=0x00;
 404:	1b b8       	out	0x0b, r1	; 11
	DDRC|=0x06;
 406:	87 b1       	in	r24, 0x07	; 7
 408:	86 60       	ori	r24, 0x06	; 6
 40a:	87 b9       	out	0x07, r24	; 7
	DDRB|=0x06;
 40c:	84 b1       	in	r24, 0x04	; 4
 40e:	86 60       	ori	r24, 0x06	; 6
 410:	84 b9       	out	0x04, r24	; 4
	LDDR1|=1<<LCD_D7|1<<LCD_D6;
 412:	84 b1       	in	r24, 0x04	; 4
 414:	86 60       	ori	r24, 0x06	; 6
 416:	84 b9       	out	0x04, r24	; 4
	LDDR2|=1<<LCD_D4|1<<LCD_D5;
 418:	87 b1       	in	r24, 0x07	; 7
 41a:	86 60       	ori	r24, 0x06	; 6
 41c:	87 b9       	out	0x07, r24	; 7
	//LDDR|=1<<LCD_D7|1<<LCD_D6|1<<LCD_D5|1<<LCD_D4;
	LCDR|=1<<LCD_E|1<<LCD_RW|1<<LCD_RS;
 41e:	8a b1       	in	r24, 0x0a	; 10
 420:	83 60       	ori	r24, 0x03	; 3
 422:	8a b9       	out	0x0a, r24	; 10
   //---------one------
	//LDP=0<<LCD_D7|0<<LCD_D6|1<<LCD_D5|1<<LCD_D4; //4 bit mode
	LCD_DATAWR(0b00110000);	
 424:	85 b1       	in	r24, 0x05	; 5
 426:	89 7f       	andi	r24, 0xF9	; 249
 428:	85 b9       	out	0x05, r24	; 5
 42a:	88 b1       	in	r24, 0x08	; 8
 42c:	86 60       	ori	r24, 0x06	; 6
 42e:	88 b9       	out	0x08, r24	; 8
	LCP|=1<<LCD_E|0<<LCD_RW|0<<LCD_RS;		
 430:	8b b1       	in	r24, 0x0b	; 11
 432:	81 60       	ori	r24, 0x01	; 1
 434:	8b b9       	out	0x0b, r24	; 11
 436:	89 ef       	ldi	r24, 0xF9	; 249
 438:	90 e0       	ldi	r25, 0x00	; 0
 43a:	01 97       	sbiw	r24, 0x01	; 1
 43c:	f1 f7       	brne	.-4      	; 0x43a <__EEPROM_REGION_LENGTH__+0x3a>
 43e:	00 c0       	rjmp	.+0      	; 0x440 <__EEPROM_REGION_LENGTH__+0x40>
 440:	00 00       	nop
	_delay_ms(1);
	LCP&=~(1<<LCD_E);
 442:	8b b1       	in	r24, 0x0b	; 11
 444:	8e 7f       	andi	r24, 0xFE	; 254
 446:	8b b9       	out	0x0b, r24	; 11
 448:	89 ef       	ldi	r24, 0xF9	; 249
 44a:	90 e0       	ldi	r25, 0x00	; 0
 44c:	01 97       	sbiw	r24, 0x01	; 1
 44e:	f1 f7       	brne	.-4      	; 0x44c <__EEPROM_REGION_LENGTH__+0x4c>
 450:	00 c0       	rjmp	.+0      	; 0x452 <__EEPROM_REGION_LENGTH__+0x52>
 452:	00 00       	nop
	_delay_ms(1);
	//-----------two-----------
	//LDP=0<<LCD_D7|0<<LCD_D6|1<<LCD_D5|1<<LCD_D4; //4 bit mode
	LCD_DATAWR(0b00110000);	
 454:	85 b1       	in	r24, 0x05	; 5
 456:	89 7f       	andi	r24, 0xF9	; 249
 458:	85 b9       	out	0x05, r24	; 5
 45a:	88 b1       	in	r24, 0x08	; 8
 45c:	86 60       	ori	r24, 0x06	; 6
 45e:	88 b9       	out	0x08, r24	; 8
	LCP|=1<<LCD_E|0<<LCD_RW|0<<LCD_RS;		
 460:	8b b1       	in	r24, 0x0b	; 11
 462:	81 60       	ori	r24, 0x01	; 1
 464:	8b b9       	out	0x0b, r24	; 11
 466:	89 ef       	ldi	r24, 0xF9	; 249
 468:	90 e0       	ldi	r25, 0x00	; 0
 46a:	01 97       	sbiw	r24, 0x01	; 1
 46c:	f1 f7       	brne	.-4      	; 0x46a <__EEPROM_REGION_LENGTH__+0x6a>
 46e:	00 c0       	rjmp	.+0      	; 0x470 <__EEPROM_REGION_LENGTH__+0x70>
 470:	00 00       	nop
	_delay_ms(1);
	LCP&=~(1<<LCD_E);
 472:	8b b1       	in	r24, 0x0b	; 11
 474:	8e 7f       	andi	r24, 0xFE	; 254
 476:	8b b9       	out	0x0b, r24	; 11
 478:	89 ef       	ldi	r24, 0xF9	; 249
 47a:	90 e0       	ldi	r25, 0x00	; 0
 47c:	01 97       	sbiw	r24, 0x01	; 1
 47e:	f1 f7       	brne	.-4      	; 0x47c <__EEPROM_REGION_LENGTH__+0x7c>
 480:	00 c0       	rjmp	.+0      	; 0x482 <__EEPROM_REGION_LENGTH__+0x82>
 482:	00 00       	nop
	_delay_ms(1);
	//-------three-------------
	//LDP=0<<LCD_D7|0<<LCD_D6|1<<LCD_D5|0<<LCD_D4; //4 bit mode
	LCD_DATAWR(0b00100000);	
 484:	85 b1       	in	r24, 0x05	; 5
 486:	89 7f       	andi	r24, 0xF9	; 249
 488:	85 b9       	out	0x05, r24	; 5
 48a:	88 b1       	in	r24, 0x08	; 8
 48c:	89 7f       	andi	r24, 0xF9	; 249
 48e:	84 60       	ori	r24, 0x04	; 4
 490:	88 b9       	out	0x08, r24	; 8
	LCP|=1<<LCD_E|0<<LCD_RW|0<<LCD_RS;		
 492:	8b b1       	in	r24, 0x0b	; 11
 494:	81 60       	ori	r24, 0x01	; 1
 496:	8b b9       	out	0x0b, r24	; 11
 498:	89 ef       	ldi	r24, 0xF9	; 249
 49a:	90 e0       	ldi	r25, 0x00	; 0
 49c:	01 97       	sbiw	r24, 0x01	; 1
 49e:	f1 f7       	brne	.-4      	; 0x49c <__EEPROM_REGION_LENGTH__+0x9c>
 4a0:	00 c0       	rjmp	.+0      	; 0x4a2 <__EEPROM_REGION_LENGTH__+0xa2>
 4a2:	00 00       	nop
	_delay_ms(1);
	LCP&=~(1<<LCD_E);
 4a4:	8b b1       	in	r24, 0x0b	; 11
 4a6:	8e 7f       	andi	r24, 0xFE	; 254
 4a8:	8b b9       	out	0x0b, r24	; 11
 4aa:	89 ef       	ldi	r24, 0xF9	; 249
 4ac:	90 e0       	ldi	r25, 0x00	; 0
 4ae:	01 97       	sbiw	r24, 0x01	; 1
 4b0:	f1 f7       	brne	.-4      	; 0x4ae <__EEPROM_REGION_LENGTH__+0xae>
 4b2:	00 c0       	rjmp	.+0      	; 0x4b4 <__EEPROM_REGION_LENGTH__+0xb4>
 4b4:	00 00       	nop
	_delay_ms(1);
	//--------4 bit--dual line---------------
	LCDsendCommand(0b00101000);
 4b6:	88 e2       	ldi	r24, 0x28	; 40
 4b8:	0e 94 0b 01 	call	0x216	; 0x216 <LCDsendCommand>
   //-----increment address, invisible cursor shift------
	LCDsendCommand(0b00001100);
 4bc:	8c e0       	ldi	r24, 0x0C	; 12
 4be:	0e 94 0b 01 	call	0x216	; 0x216 <LCDsendCommand>
		//init 8 custom chars
	uint8_t ch=0, chn=0;
 4c2:	60 e0       	ldi	r22, 0x00	; 0
 4c4:	c0 e0       	ldi	r28, 0x00	; 0
	while(ch<64)
 4c6:	0a c0       	rjmp	.+20     	; 0x4dc <__EEPROM_REGION_LENGTH__+0xdc>
	{
		LCDdefinechar((LcdCustomChar+ch),chn++);
 4c8:	d1 e0       	ldi	r29, 0x01	; 1
 4ca:	d6 0f       	add	r29, r22
 4cc:	8c 2f       	mov	r24, r28
 4ce:	90 e0       	ldi	r25, 0x00	; 0
 4d0:	88 59       	subi	r24, 0x98	; 152
 4d2:	9f 4f       	sbci	r25, 0xFF	; 255
 4d4:	0e 94 ca 01 	call	0x394	; 0x394 <LCDdefinechar>
		ch=ch+8;
 4d8:	c8 5f       	subi	r28, 0xF8	; 248
	LCDsendCommand(0b00001100);
		//init 8 custom chars
	uint8_t ch=0, chn=0;
	while(ch<64)
	{
		LCDdefinechar((LcdCustomChar+ch),chn++);
 4da:	6d 2f       	mov	r22, r29
	LCDsendCommand(0b00101000);
   //-----increment address, invisible cursor shift------
	LCDsendCommand(0b00001100);
		//init 8 custom chars
	uint8_t ch=0, chn=0;
	while(ch<64)
 4dc:	c0 34       	cpi	r28, 0x40	; 64
 4de:	a0 f3       	brcs	.-24     	; 0x4c8 <__EEPROM_REGION_LENGTH__+0xc8>
		LCDdefinechar((LcdCustomChar+ch),chn++);
		ch=ch+8;
	}

#endif
}			
 4e0:	df 91       	pop	r29
 4e2:	cf 91       	pop	r28
 4e4:	08 95       	ret

000004e6 <setup>:
		}
    }
}
/*SETUP DE LA PANTALLA LCD*/
void setup(){
	LCDinit();
 4e6:	0e 94 f4 01 	call	0x3e8	; 0x3e8 <LCDinit>
	LCDclr();
 4ea:	0e 94 9f 01 	call	0x33e	; 0x33e <LCDclr>
	//LCDhome();
	LCDstring((uint8_t*)"CDyM PRUEBA",11);
 4ee:	6b e0       	ldi	r22, 0x0B	; 11
 4f0:	80 e0       	ldi	r24, 0x00	; 0
 4f2:	91 e0       	ldi	r25, 0x01	; 1
 4f4:	0e 94 a3 01 	call	0x346	; 0x346 <LCDstring>
	LCDGotoXY(0,1);
 4f8:	61 e0       	ldi	r22, 0x01	; 1
 4fa:	80 e0       	ldi	r24, 0x00	; 0
 4fc:	0e 94 bb 01 	call	0x376	; 0x376 <LCDGotoXY>
	LCDstring((uint8_t*)"Tecla:",6);
 500:	66 e0       	ldi	r22, 0x06	; 6
 502:	8c e0       	ldi	r24, 0x0C	; 12
 504:	91 e0       	ldi	r25, 0x01	; 1
 506:	0e 94 a3 01 	call	0x346	; 0x346 <LCDstring>
 50a:	08 95       	ret

0000050c <KEYPAD_scan>:
const char codChar[4][4] = {{'1','2','3','A'},
							{'4','5','6','B'},
							{'7','8','9','C'},
							{'0','*','#','D'}};

uint8_t KEYPAD_scan (uint8_t *key){
 50c:	dc 01       	movw	r26, r24
	PORTD=0b01111100;
 50e:	8c e7       	ldi	r24, 0x7C	; 124
 510:	8b b9       	out	0x0b, r24	; 11
	
	for(int c=0;c<4;c++){
 512:	60 e0       	ldi	r22, 0x00	; 0
 514:	70 e0       	ldi	r23, 0x00	; 0
 516:	3c c0       	rjmp	.+120    	; 0x590 <KEYPAD_scan+0x84>
		//poner en cero las filas
		DDRD &= ~(0b10000000);
 518:	8a b1       	in	r24, 0x0a	; 10
 51a:	8f 77       	andi	r24, 0x7F	; 127
 51c:	8a b9       	out	0x0a, r24	; 10
		DDRB &= ~(0b00011001);
 51e:	84 b1       	in	r24, 0x04	; 4
 520:	86 7e       	andi	r24, 0xE6	; 230
 522:	84 b9       	out	0x04, r24	; 4
		
		if(c==3) DDRD |= filas[c];
 524:	63 30       	cpi	r22, 0x03	; 3
 526:	71 05       	cpc	r23, r1
 528:	41 f4       	brne	.+16     	; 0x53a <KEYPAD_scan+0x2e>
 52a:	9a b1       	in	r25, 0x0a	; 10
 52c:	fb 01       	movw	r30, r22
 52e:	e9 5d       	subi	r30, 0xD9	; 217
 530:	fe 4f       	sbci	r31, 0xFE	; 254
 532:	80 81       	ld	r24, Z
 534:	89 2b       	or	r24, r25
 536:	8a b9       	out	0x0a, r24	; 10
 538:	07 c0       	rjmp	.+14     	; 0x548 <KEYPAD_scan+0x3c>
		else     DDRB |= filas[c];
 53a:	84 b1       	in	r24, 0x04	; 4
 53c:	fb 01       	movw	r30, r22
 53e:	e9 5d       	subi	r30, 0xD9	; 217
 540:	fe 4f       	sbci	r31, 0xFE	; 254
 542:	90 81       	ld	r25, Z
 544:	98 2b       	or	r25, r24
 546:	94 b9       	out	0x04, r25	; 4
		
		for(int r=0; r<4; r++){
 548:	20 e0       	ldi	r18, 0x00	; 0
 54a:	30 e0       	ldi	r19, 0x00	; 0
 54c:	1c c0       	rjmp	.+56     	; 0x586 <KEYPAD_scan+0x7a>
			if(!(PIND & columna[r])){
 54e:	49 b1       	in	r20, 0x09	; 9
 550:	f9 01       	movw	r30, r18
 552:	ed 5d       	subi	r30, 0xDD	; 221
 554:	fe 4f       	sbci	r31, 0xFE	; 254
 556:	90 81       	ld	r25, Z
 558:	94 23       	and	r25, r20
 55a:	99 f4       	brne	.+38     	; 0x582 <KEYPAD_scan+0x76>
				*key = codChar[c][r];
 55c:	66 0f       	add	r22, r22
 55e:	77 1f       	adc	r23, r23
 560:	66 0f       	add	r22, r22
 562:	77 1f       	adc	r23, r23
 564:	6d 5e       	subi	r22, 0xED	; 237
 566:	7e 4f       	sbci	r23, 0xFE	; 254
 568:	fb 01       	movw	r30, r22
 56a:	e2 0f       	add	r30, r18
 56c:	f3 1f       	adc	r31, r19
 56e:	80 81       	ld	r24, Z
 570:	8c 93       	st	X, r24
 572:	8f e3       	ldi	r24, 0x3F	; 63
 574:	9c e9       	ldi	r25, 0x9C	; 156
 576:	01 97       	sbiw	r24, 0x01	; 1
 578:	f1 f7       	brne	.-4      	; 0x576 <KEYPAD_scan+0x6a>
 57a:	00 c0       	rjmp	.+0      	; 0x57c <KEYPAD_scan+0x70>
 57c:	00 00       	nop
				_delay_ms(20);
				return(1);
 57e:	81 e0       	ldi	r24, 0x01	; 1
 580:	08 95       	ret
		DDRB &= ~(0b00011001);
		
		if(c==3) DDRD |= filas[c];
		else     DDRB |= filas[c];
		
		for(int r=0; r<4; r++){
 582:	2f 5f       	subi	r18, 0xFF	; 255
 584:	3f 4f       	sbci	r19, 0xFF	; 255
 586:	24 30       	cpi	r18, 0x04	; 4
 588:	31 05       	cpc	r19, r1
 58a:	0c f3       	brlt	.-62     	; 0x54e <KEYPAD_scan+0x42>
							{'0','*','#','D'}};

uint8_t KEYPAD_scan (uint8_t *key){
	PORTD=0b01111100;
	
	for(int c=0;c<4;c++){
 58c:	6f 5f       	subi	r22, 0xFF	; 255
 58e:	7f 4f       	sbci	r23, 0xFF	; 255
 590:	64 30       	cpi	r22, 0x04	; 4
 592:	71 05       	cpc	r23, r1
 594:	0c f4       	brge	.+2      	; 0x598 <KEYPAD_scan+0x8c>
 596:	c0 cf       	rjmp	.-128    	; 0x518 <KEYPAD_scan+0xc>
				_delay_ms(20);
				return(1);
			}
		}
	}
	return(0);
 598:	80 e0       	ldi	r24, 0x00	; 0
 59a:	08 95       	ret

0000059c <KEYPAD_Update>:
DEVUELVE:
0 -> NO HAYNUEVA TECLA PRESIONADA
1 -> HAY NUEVA TECLA PRESIONADA Y ES *pkey
********************************************************/
uint8_t KEYPAD_Update (uint8_t *pkey)
{
 59c:	0f 93       	push	r16
 59e:	1f 93       	push	r17
 5a0:	cf 93       	push	r28
 5a2:	df 93       	push	r29
 5a4:	1f 92       	push	r1
 5a6:	cd b7       	in	r28, 0x3d	; 61
 5a8:	de b7       	in	r29, 0x3e	; 62
 5aa:	8c 01       	movw	r16, r24
	static uint8_t Old_key;
	uint8_t Key, Last_valid_key=0xFF; // no hay tecla presionada
	if(!KEYPAD_scan(&Key)) {
 5ac:	ce 01       	movw	r24, r28
 5ae:	01 96       	adiw	r24, 0x01	; 1
 5b0:	0e 94 86 02 	call	0x50c	; 0x50c <KEYPAD_scan>
 5b4:	81 11       	cpse	r24, r1
 5b6:	04 c0       	rjmp	.+8      	; 0x5c0 <KEYPAD_Update+0x24>
		Old_key=0xFF; // no hay tecla presionada
 5b8:	9f ef       	ldi	r25, 0xFF	; 255
 5ba:	90 93 2c 01 	sts	0x012C, r25	; 0x80012c <__data_end>
		Last_valid_key=0xFF;
		return 0;
 5be:	0e c0       	rjmp	.+28     	; 0x5dc <KEYPAD_Update+0x40>
	}
	if(Key==Old_key) { //2da verificación
 5c0:	89 81       	ldd	r24, Y+1	; 0x01
 5c2:	90 91 2c 01 	lds	r25, 0x012C	; 0x80012c <__data_end>
 5c6:	89 13       	cpse	r24, r25
 5c8:	06 c0       	rjmp	.+12     	; 0x5d6 <KEYPAD_Update+0x3a>
		if(Key!=Last_valid_key){ //evita múltiple detección
 5ca:	8f 3f       	cpi	r24, 0xFF	; 255
 5cc:	21 f0       	breq	.+8      	; 0x5d6 <KEYPAD_Update+0x3a>
			*pkey=Key;
 5ce:	f8 01       	movw	r30, r16
 5d0:	80 83       	st	Z, r24
			Last_valid_key = Key;
			return 1;
 5d2:	81 e0       	ldi	r24, 0x01	; 1
 5d4:	03 c0       	rjmp	.+6      	; 0x5dc <KEYPAD_Update+0x40>
		}
	}
	Old_key=Key; //1era verificación
 5d6:	80 93 2c 01 	sts	0x012C, r24	; 0x80012c <__data_end>
	return 0;
 5da:	80 e0       	ldi	r24, 0x00	; 0
}
 5dc:	0f 90       	pop	r0
 5de:	df 91       	pop	r29
 5e0:	cf 91       	pop	r28
 5e2:	1f 91       	pop	r17
 5e4:	0f 91       	pop	r16
 5e6:	08 95       	ret

000005e8 <main>:
void setup();
uint8_t KEYPAD_scan (uint8_t *);
uint8_t KEYPAD_Update (uint8_t *);

int main(void)
{
 5e8:	cf 93       	push	r28
 5ea:	df 93       	push	r29
 5ec:	1f 92       	push	r1
 5ee:	cd b7       	in	r28, 0x3d	; 61
 5f0:	de b7       	in	r29, 0x3e	; 62
    /* Replace with your application code */
    uint8_t key=0x00;
 5f2:	19 82       	std	Y+1, r1	; 0x01
	
	setup();
 5f4:	0e 94 73 02 	call	0x4e6	; 0x4e6 <setup>

	while (1) 
    {
		if(KEYPAD_Update (&key)){
 5f8:	ce 01       	movw	r24, r28
 5fa:	01 96       	adiw	r24, 0x01	; 1
 5fc:	0e 94 ce 02 	call	0x59c	; 0x59c <KEYPAD_Update>
 600:	88 23       	and	r24, r24
 602:	d1 f3       	breq	.-12     	; 0x5f8 <main+0x10>
			LCDsendChar(key);//se manda key al lcd
 604:	89 81       	ldd	r24, Y+1	; 0x01
 606:	0e 94 73 00 	call	0xe6	; 0xe6 <LCDsendChar>
			LCDGotoXY(7,1);
 60a:	61 e0       	ldi	r22, 0x01	; 1
 60c:	87 e0       	ldi	r24, 0x07	; 7
 60e:	0e 94 bb 01 	call	0x376	; 0x376 <LCDGotoXY>
 612:	f2 cf       	rjmp	.-28     	; 0x5f8 <main+0x10>

00000614 <_exit>:
 614:	f8 94       	cli

00000616 <__stop_program>:
 616:	ff cf       	rjmp	.-2      	; 0x616 <__stop_program>
